target datalayout = "e-m:e-p270:32:32-p271:32:32-p272:64:64-i64:64-i128:128-f80:128-n8:16:32:64-S128"
target triple = "x86_64-pc-linux-gnu"

%"struct.llvm::LaneBitmask" = type { i64 }
%"class.llvm::MCRegister" = type { i32 }
%"class.llvm::MCRegisterInfo" = type { ptr, i32, %"class.llvm::MCRegister", %"class.llvm::MCRegister", ptr, i32, i32, ptr, ptr, ptr, ptr, ptr, ptr, i32, ptr, i32, i32, i32, i32, ptr, ptr, ptr, ptr, %"class.llvm::DenseMap", %"class.llvm::DenseMap", %"class.std::vector" }
%"class.llvm::DenseMap" = type <{ ptr, i32, i32, i32, [4 x i8] }>
%"class.std::vector" = type { %"struct.std::_Vector_base" }
%"struct.std::_Vector_base" = type { %"struct.std::_Vector_base<std::vector<unsigned short>, std::allocator<std::vector<unsigned short>>>::_Vector_impl" }
%"struct.std::_Vector_base<std::vector<unsigned short>, std::allocator<std::vector<unsigned short>>>::_Vector_impl" = type { %"struct.std::_Vector_base<std::vector<unsigned short>, std::allocator<std::vector<unsigned short>>>::_Vector_impl_data" }
%"struct.std::_Vector_base<std::vector<unsigned short>, std::allocator<std::vector<unsigned short>>>::_Vector_impl_data" = type { ptr, ptr, ptr }
%"class.llvm::X86RegisterInfo" = type { %"struct.llvm::X86GenRegisterInfo.base", i8, i8, i32, i32, i32, i32 }
%"struct.llvm::X86GenRegisterInfo.base" = type { %"class.llvm::TargetRegisterInfo.base" }
%"class.llvm::TargetRegisterInfo.base" = type <{ ptr, %"class.llvm::MCRegisterInfo", ptr, ptr, ptr, ptr, ptr, ptr, %"struct.llvm::LaneBitmask", ptr, ptr, i32 }>
%"class.std::__cxx11::basic_string" = type { %"struct.std::__cxx11::basic_string<char>::_Alloc_hider", i64, %union.anon }
%"struct.std::__cxx11::basic_string<char>::_Alloc_hider" = type { ptr }
%union.anon = type { i64, [8 x i8] }
%"class.llvm::Triple" = type { %"class.std::__cxx11::basic_string", i32, i32, i32, i32, i32, i32 }

; Function Attrs: mustprogress nounwind uwtable
define linkonce_odr hidden noundef i32 @_ZNK4llvm6Triple14getEnvironmentEv(ptr noundef nonnull align 8 dereferenceable(56) %0) #0 comdat align 2 {
  %2 = alloca ptr, align 8
  store ptr %0, ptr %2, align 8
  %3 = load ptr, ptr %2, align 8
  %4 = getelementptr inbounds nuw %"class.llvm::Triple", ptr %3, i32 0, i32 5
  %5 = load i32, ptr %4, align 8
  ret i32 %5
}

; Function Attrs: mustprogress nounwind uwtable
define linkonce_odr hidden noundef i32 @_ZNK4llvm6Triple5getOSEv(ptr noundef nonnull align 8 dereferenceable(56) %0) #0 comdat align 2 {
  %2 = alloca ptr, align 8
  store ptr %0, ptr %2, align 8
  %3 = load ptr, ptr %2, align 8
  %4 = getelementptr inbounds nuw %"class.llvm::Triple", ptr %3, i32 0, i32 4
  %5 = load i32, ptr %4, align 4
  ret i32 %5
}

; Function Attrs: mustprogress nounwind uwtable
define linkonce_odr hidden noundef zeroext i1 @_ZNK4llvm6Triple5isX32Ev(ptr noundef nonnull align 8 dereferenceable(56) %0) #0 comdat align 2 {
  %2 = alloca ptr, align 8
  %3 = alloca i32, align 4
  store ptr %0, ptr %2, align 8
  %4 = load ptr, ptr %2, align 8
  %5 = call noundef i32 @_ZNK4llvm6Triple14getEnvironmentEv(ptr noundef nonnull align 8 dereferenceable(56) %4)
  store i32 %5, ptr %3, align 4
  %6 = load i32, ptr %3, align 4
  %7 = icmp eq i32 %6, 9
  br i1 %7, label %11, label %8

8:                                                ; preds = %1
  %9 = load i32, ptr %3, align 4
  %10 = icmp eq i32 %9, 18
  br label %11

11:                                               ; preds = %8, %1
  %12 = phi i1 [ true, %1 ], [ %10, %8 ]
  ret i1 %12
}

; Function Attrs: mustprogress nounwind uwtable
define linkonce_odr hidden noundef zeroext i1 @_ZNK4llvm6Triple11isOSWindowsEv(ptr noundef nonnull align 8 dereferenceable(56) %0) #0 comdat align 2 {
  %2 = alloca ptr, align 8
  store ptr %0, ptr %2, align 8
  %3 = load ptr, ptr %2, align 8
  %4 = call noundef i32 @_ZNK4llvm6Triple5getOSEv(ptr noundef nonnull align 8 dereferenceable(56) %3)
  %5 = icmp eq i32 %4, 14
  ret i1 %5
}

; Function Attrs: mustprogress nounwind uwtable
define dso_local void @_ZN4llvm15X86RegisterInfoC2ERKNS_6TripleE(ptr noundef nonnull align 8 dereferenceable(328) %0, ptr noundef nonnull align 8 dereferenceable(56) %1) unnamed_addr #0 align 2 {
  %3 = alloca ptr, align 8
  %4 = alloca ptr, align 8
  %5 = alloca i8, align 1
  store ptr %0, ptr %3, align 8
  store ptr %1, ptr %4, align 8
  %6 = load ptr, ptr %3, align 8
  %7 = load ptr, ptr %4, align 8
  %8 = call noundef zeroext i1 @_ZNK4llvm6Triple11isArch64BitEv(ptr noundef nonnull align 8 dereferenceable(56) %7)
  %9 = select i1 %8, i32 58, i32 29
  %10 = load ptr, ptr %4, align 8
  %11 = call noundef i32 @_ZN4llvm6X86_MC18getDwarfRegFlavourERKNS_6TripleEb(ptr noundef nonnull align 8 dereferenceable(56) %10, i1 noundef zeroext false)
  %12 = load ptr, ptr %4, align 8
  %13 = call noundef i32 @_ZN4llvm6X86_MC18getDwarfRegFlavourERKNS_6TripleEb(ptr noundef nonnull align 8 dereferenceable(56) %12, i1 noundef zeroext true)
  %14 = load ptr, ptr %4, align 8
  %15 = call noundef zeroext i1 @_ZNK4llvm6Triple11isArch64BitEv(ptr noundef nonnull align 8 dereferenceable(56) %14)
  %16 = select i1 %15, i32 58, i32 29
  call void @_ZN4llvm18X86GenRegisterInfoC2Ejjjjj(ptr noundef nonnull align 8 dereferenceable(308) %6, i32 noundef %9, i32 noundef %11, i32 noundef %13, i32 noundef %16, i32 noundef 0)
  store ptr getelementptr inbounds inrange(-16, 648) ({ [83 x ptr] }, ptr @_ZTVN4llvm15X86RegisterInfoE, i32 0, i32 0, i32 2), ptr %6, align 8
  %17 = getelementptr inbounds i8, ptr %6, i64 8
  call void @_ZN4llvm6X86_MC28initLLVMToSEHAndCVRegMappingEPNS_14MCRegisterInfoE(ptr noundef %17)
  %18 = load ptr, ptr %4, align 8
  %19 = call noundef zeroext i1 @_ZNK4llvm6Triple11isArch64BitEv(ptr noundef nonnull align 8 dereferenceable(56) %18)
  %20 = getelementptr inbounds nuw %"class.llvm::X86RegisterInfo", ptr %6, i32 0, i32 1
  %21 = zext i1 %19 to i8
  store i8 %21, ptr %20, align 4
  %22 = getelementptr inbounds nuw %"class.llvm::X86RegisterInfo", ptr %6, i32 0, i32 1
  %23 = load i8, ptr %22, align 4
  %24 = trunc i8 %23 to i1
  br i1 %24, label %25, label %28

25:                                               ; preds = %2
  %26 = load ptr, ptr %4, align 8
  %27 = call noundef zeroext i1 @_ZNK4llvm6Triple11isOSWindowsEv(ptr noundef nonnull align 8 dereferenceable(56) %26)
  br label %28

28:                                               ; preds = %25, %2
  %29 = phi i1 [ false, %2 ], [ %27, %25 ]
  %30 = getelementptr inbounds nuw %"class.llvm::X86RegisterInfo", ptr %6, i32 0, i32 2
  %31 = zext i1 %29 to i8
  store i8 %31, ptr %30, align 1
  %32 = getelementptr inbounds nuw %"class.llvm::X86RegisterInfo", ptr %6, i32 0, i32 1
  %33 = load i8, ptr %32, align 4
  %34 = trunc i8 %33 to i1
  br i1 %34, label %35, label %53

35:                                               ; preds = %28
  %36 = getelementptr inbounds nuw %"class.llvm::X86RegisterInfo", ptr %6, i32 0, i32 3
  store i32 8, ptr %36, align 8
  %37 = load ptr, ptr %4, align 8
  %38 = call noundef zeroext i1 @_ZNK4llvm6Triple5isX32Ev(ptr noundef nonnull align 8 dereferenceable(56) %37)
  %39 = xor i1 %38, true
  %40 = zext i1 %39 to i8
  store i8 %40, ptr %5, align 1
  %41 = load i8, ptr %5, align 1
  %42 = trunc i8 %41 to i1
  %43 = select i1 %42, i32 61, i32 33
  %44 = getelementptr inbounds nuw %"class.llvm::X86RegisterInfo", ptr %6, i32 0, i32 4
  store i32 %43, ptr %44, align 4
  %45 = load i8, ptr %5, align 1
  %46 = trunc i8 %45 to i1
  %47 = select i1 %46, i32 52, i32 23
  %48 = getelementptr inbounds nuw %"class.llvm::X86RegisterInfo", ptr %6, i32 0, i32 5
  store i32 %47, ptr %48, align 8
  %49 = load i8, ptr %5, align 1
  %50 = trunc i8 %49 to i1
  %51 = select i1 %50, i32 53, i32 24
  %52 = getelementptr inbounds nuw %"class.llvm::X86RegisterInfo", ptr %6, i32 0, i32 6
  store i32 %51, ptr %52, align 4
  br label %58

53:                                               ; preds = %28
  %54 = getelementptr inbounds nuw %"class.llvm::X86RegisterInfo", ptr %6, i32 0, i32 3
  store i32 4, ptr %54, align 8
  %55 = getelementptr inbounds nuw %"class.llvm::X86RegisterInfo", ptr %6, i32 0, i32 4
  store i32 33, ptr %55, align 4
  %56 = getelementptr inbounds nuw %"class.llvm::X86RegisterInfo", ptr %6, i32 0, i32 5
  store i32 23, ptr %56, align 8
  %57 = getelementptr inbounds nuw %"class.llvm::X86RegisterInfo", ptr %6, i32 0, i32 6
  store i32 32, ptr %57, align 4
  br label %58

58:                                               ; preds = %53, %35
  ret void
}