; Function Attrs: mustprogress nounwind uwtable
define dso_local void @_ZN4llvm15X86RegisterInfoC2ERKNS_6TripleE(ptr noundef nonnull align 8 dereferenceable(328) %0, ptr noundef nonnull align 8 dereferenceable(56) %1) unnamed_addr #2 align 2 {
  %3 = tail call noundef zeroext i1 @_ZNK4llvm6Triple11isArch64BitEv(ptr noundef nonnull align 8 dereferenceable(56) %1) #22
  %4 = select i1 %3, i32 58, i32 29
  %5 = tail call noundef i32 @_ZN4llvm6X86_MC18getDwarfRegFlavourERKNS_6TripleEb(ptr noundef nonnull align 8 dereferenceable(56) %1, i1 noundef zeroext false) #22
  %6 = tail call noundef i32 @_ZN4llvm6X86_MC18getDwarfRegFlavourERKNS_6TripleEb(ptr noundef nonnull align 8 dereferenceable(56) %1, i1 noundef zeroext true) #22
  %7 = tail call noundef zeroext i1 @_ZNK4llvm6Triple11isArch64BitEv(ptr noundef nonnull align 8 dereferenceable(56) %1) #22
  %8 = select i1 %7, i32 58, i32 29
  tail call void @_ZN4llvm18X86GenRegisterInfoC2Ejjjjj(ptr noundef nonnull align 8 dereferenceable(308) %0, i32 noundef %4, i32 noundef %5, i32 noundef %6, i32 noundef %8, i32 noundef 0)
  store ptr getelementptr inbounds nuw inrange(-16, 648) (i8, ptr @_ZTVN4llvm15X86RegisterInfoE, i64 16), ptr %0, align 8
  %9 = getelementptr inbounds nuw i8, ptr %0, i64 8
  tail call void @_ZN4llvm6X86_MC28initLLVMToSEHAndCVRegMappingEPNS_14MCRegisterInfoE(ptr noundef nonnull %9) #22
  %10 = tail call noundef zeroext i1 @_ZNK4llvm6Triple11isArch64BitEv(ptr noundef nonnull align 8 dereferenceable(56) %1) #22
  %11 = getelementptr inbounds nuw i8, ptr %0, i64 308
  %12 = zext i1 %10 to i8
  store i8 %12, ptr %11, align 4
  br i1 %10, label %13, label %28

13:                                               ; preds = %2
  %14 = getelementptr inbounds nuw i8, ptr %1, i64 44
  %15 = load i32, ptr %14, align 4
  %16 = icmp eq i32 %15, 14
  %17 = zext i1 %16 to i8
  %18 = getelementptr inbounds nuw i8, ptr %0, i64 309
  store i8 %17, ptr %18, align 1
  %19 = getelementptr inbounds nuw i8, ptr %0, i64 312
  store i32 8, ptr %19, align 8
  %20 = getelementptr inbounds nuw i8, ptr %1, i64 48
  %21 = load i32, ptr %20, align 8
  %22 = icmp eq i32 %21, 9
  %23 = icmp eq i32 %21, 18
  %24 = or i1 %22, %23
  %25 = select i1 %24, i32 33, i32 61
  %26 = select i1 %24, i32 23, i32 52
  %27 = select i1 %24, i32 24, i32 53
  br label %31

28:                                               ; preds = %2
  %29 = getelementptr inbounds nuw i8, ptr %0, i64 309
  store i8 0, ptr %29, align 1
  %30 = getelementptr inbounds nuw i8, ptr %0, i64 312
  store i32 4, ptr %30, align 8
  br label %31

31:                                               ; preds = %28, %13
  %.sink11 = phi i32 [ %25, %13 ], [ 33, %28 ]
  %.sink10 = phi i32 [ %26, %13 ], [ 23, %28 ]
  %.sink = phi i32 [ %27, %13 ], [ 32, %28 ]
  %32 = getelementptr inbounds nuw i8, ptr %0, i64 316
  store i32 %.sink11, ptr %32, align 4
  %33 = getelementptr inbounds nuw i8, ptr %0, i64 320
  store i32 %.sink10, ptr %33, align 8
  %34 = getelementptr inbounds nuw i8, ptr %0, i64 324
  store i32 %.sink, ptr %34, align 4
  ret void
}